; Function Attrs: mustprogress uwtable
define internal noundef float @_ZN12_GLOBAL__N_15bondsIL18BondedKernelFlavor2EEENSt9enable_ifIXooneT_LS1_0EntLi1EEfE4typeEiPKiPK9t_iparamsPA3_KfPA4_fPA3_fPK5t_pbcfPfN3gmx8ArrayRefISA_EEP8t_fcdataP12t_disresdataP12t_oriresdataPi(i32 noundef %0, ptr nocapture noundef readonly %1, ptr nocapture noundef readonly %2, ptr noundef %3, ptr nocapture noundef %4, ptr nocapture noundef %5, ptr noundef %6, float noundef %7, ptr nocapture noundef %8, ptr nocapture noundef readnone byval(%"class.gmx::ArrayRef") align 8 %9, ptr nocapture readnone %10, ptr nocapture readnone %11, ptr nocapture readnone %12, ptr nocapture readnone %13) #4 {
  %15 = alloca [3 x float], align 8
  %.not.i = icmp eq ptr %6, null
  %16 = getelementptr inbounds i8, ptr %15, i64 8
  %17 = fsub float 1.000000e+00, %7
  %18 = getelementptr inbounds i8, ptr %5, i64 264
  %19 = sext i32 %0 to i64
  br label %.outer

.outer:                                           ; preds = %_ZN12_GLOBAL__N_116spreadBondForcesIL18BondedKernelFlavor2EEEvfPKfiiPA4_fiPA3_f.exit, %14
  %.033.ph = phi i64 [ %indvars.iv.next, %_ZN12_GLOBAL__N_116spreadBondForcesIL18BondedKernelFlavor2EEEvfPKfiiPA4_fiPA3_f.exit ], [ 0, %14 ]
  %.0.ph = phi float [ %101, %_ZN12_GLOBAL__N_116spreadBondForcesIL18BondedKernelFlavor2EEEvfPKfiiPA4_fiPA3_f.exit ], [ 0.000000e+00, %14 ]
  %sext = shl i64 %.033.ph, 32
  %20 = ashr exact i64 %sext, 32
  br label %21

21:                                               ; preds = %.outer, %_ZN12_GLOBAL__N_112pbc_rvec_subEPK5t_pbcPKfS4_Pf.exit
  %indvars.iv = phi i64 [ %20, %.outer ], [ %indvars.iv.next, %_ZN12_GLOBAL__N_112pbc_rvec_subEPK5t_pbcPKfS4_Pf.exit ]
  %22 = icmp slt i64 %indvars.iv, %19
  br i1 %22, label %23, label %102

23:                                               ; preds = %21
  %24 = getelementptr inbounds i32, ptr %1, i64 %indvars.iv
  %25 = load i32, ptr %24, align 4
  %26 = getelementptr i8, ptr %24, i64 4
  %27 = load i32, ptr %26, align 4
  %indvars.iv.next = add nsw i64 %indvars.iv, 3
  %28 = getelementptr i8, ptr %24, i64 8
  %29 = load i32, ptr %28, align 4
  %30 = sext i32 %27 to i64
  %31 = getelementptr inbounds [3 x float], ptr %3, i64 %30
  %32 = sext i32 %29 to i64
  %33 = getelementptr inbounds [3 x float], ptr %3, i64 %32
  br i1 %.not.i, label %37, label %34

34:                                               ; preds = %23
  %35 = call noundef i32 @_Z11pbc_dx_aiucPK5t_pbcPKfS3_Pf(ptr noundef nonnull %6, ptr noundef %31, ptr noundef %33, ptr noundef nonnull %15)
  %36 = load <2 x float>, ptr %15, align 8
  %.pre50 = load float, ptr %16, align 8
  br label %_ZN12_GLOBAL__N_112pbc_rvec_subEPK5t_pbcPKfS4_Pf.exit

37:                                               ; preds = %23
  %38 = load <2 x float>, ptr %31, align 4
  %39 = load <2 x float>, ptr %33, align 4
  %40 = fsub <2 x float> %38, %39
  %41 = getelementptr inbounds i8, ptr %31, i64 8
  %42 = load float, ptr %41, align 4
  %43 = getelementptr inbounds i8, ptr %33, i64 8
  %44 = load float, ptr %43, align 4
  %45 = fsub float %42, %44
  store <2 x float> %40, ptr %15, align 8
  store float %45, ptr %16, align 8
  br label %_ZN12_GLOBAL__N_112pbc_rvec_subEPK5t_pbcPKfS4_Pf.exit

_ZN12_GLOBAL__N_112pbc_rvec_subEPK5t_pbcPKfS4_Pf.exit: ; preds = %34, %37
  %46 = phi float [ %.pre50, %34 ], [ %45, %37 ]
  %.0.i = phi i32 [ %35, %34 ], [ 22, %37 ]
  %47 = phi <2 x float> [ %36, %34 ], [ %40, %37 ]
  %48 = fmul <2 x float> %47, %47
  %49 = extractelement <2 x float> %48, i64 1
  %50 = extractelement <2 x float> %47, i64 0
  %51 = call float @llvm.fmuladd.f32(float %50, float %50, float %49)
  %52 = call noundef float @llvm.fmuladd.f32(float %46, float %46, float %51)
  %sqrt = call float @llvm.sqrt.f32(float %52)
  %53 = sext i32 %25 to i64
  %54 = getelementptr inbounds %union.t_iparams, ptr %2, i64 %53
  %55 = getelementptr inbounds i8, ptr %54, i64 4
  %56 = load float, ptr %55, align 4
  %57 = getelementptr inbounds i8, ptr %54, i64 12
  %58 = load float, ptr %57, align 4
  %59 = load float, ptr %54, align 4
  %60 = getelementptr inbounds i8, ptr %54, i64 8
  %61 = load float, ptr %60, align 4
  %62 = fmul float %58, %7
  %63 = call float @llvm.fmuladd.f32(float %17, float %56, float %62)
  %64 = fmul float %61, %7
  %65 = call float @llvm.fmuladd.f32(float %17, float %59, float %64)
  %66 = fsub float %sqrt, %65
  %67 = fmul float %66, %66
  %68 = fsub float %58, %56
  %69 = fmul float %68, 5.000000e-01
  %70 = fsub float %59, %61
  %71 = fmul float %63, %70
  %72 = fmul float %71, %66
  %73 = call noundef float @llvm.fmuladd.f32(float %69, float %67, float %72)
  %74 = load float, ptr %8, align 4
  %75 = fadd float %74, %73
  store float %75, ptr %8, align 4
  %76 = fcmp oeq float %52, 0.000000e+00
  br i1 %76, label %21, label %77, !llvm.loop !112

77:                                               ; preds = %_ZN12_GLOBAL__N_112pbc_rvec_subEPK5t_pbcPKfS4_Pf.exit
  %78 = fmul float %63, 5.000000e-01
  %79 = fneg float %63
  %80 = fmul float %66, %79
  %81 = fdiv float 1.000000e+00, %sqrt
  %82 = fmul float %81, %80
  %83 = sext i32 %.0.i to i64
  br label %84

84:                                               ; preds = %84, %77
  %indvars.iv.i = phi i64 [ 0, %77 ], [ %indvars.iv.next.i, %84 ]
  %85 = getelementptr inbounds float, ptr %15, i64 %indvars.iv.i
  %86 = load float, ptr %85, align 4
  %87 = fmul float %82, %86
  %88 = getelementptr inbounds [4 x float], ptr %4, i64 %30, i64 %indvars.iv.i
  %89 = load float, ptr %88, align 4
  %90 = fadd float %89, %87
  store float %90, ptr %88, align 4
  %91 = getelementptr inbounds [4 x float], ptr %4, i64 %32, i64 %indvars.iv.i
  %92 = load float, ptr %91, align 4
  %93 = fsub float %92, %87
  store float %93, ptr %91, align 4
  %94 = getelementptr inbounds [3 x float], ptr %5, i64 %83, i64 %indvars.iv.i
  %95 = load float, ptr %94, align 4
  %96 = fadd float %87, %95
  store float %96, ptr %94, align 4
  %97 = getelementptr inbounds [3 x float], ptr %18, i64 0, i64 %indvars.iv.i
  %98 = load float, ptr %97, align 4
  %99 = fsub float %98, %87
  store float %99, ptr %97, align 4
  %indvars.iv.next.i = add nuw nsw i64 %indvars.iv.i, 1
  %exitcond.not.i = icmp eq i64 %indvars.iv.next.i, 3
  br i1 %exitcond.not.i, label %_ZN12_GLOBAL__N_116spreadBondForcesIL18BondedKernelFlavor2EEEvfPKfiiPA4_fiPA3_f.exit, label %84, !llvm.loop !113

_ZN12_GLOBAL__N_116spreadBondForcesIL18BondedKernelFlavor2EEEvfPKfiiPA4_fiPA3_f.exit: ; preds = %84
  %100 = fmul float %78, %67
  %101 = fadd float %.0.ph, %100
  br label %.outer, !llvm.loop !112

102:                                              ; preds = %21
  ret float %.0.ph
}